(dp0
S'lockedA'
p1
I1
sS'lockedB'
p2
I0
sS'swaptime'
p3
I4000
sS'locking_positionA'
p4
I1250
sS'locking_positionB'
p5
I1250
sS'u_pos'
p6
I2
sS'A2_ms'
p7
I1250
sS'B3_ms'
p8
I600
sS'A1_ms'
p9
I2360
sS'A3_ms'
p10
I600
sS'B2_ms'
p11
I1250
sS'B1_ms'
p12
I2330
s.